(dp0
(S'wt'
p1
I8
tp2
(lp3
(I526
I289
tp4
a(I543
I132
tp5
a(I562
I363
tp6
a(I581
I209
tp7
a(I599
I55
tp8
a(I615
I289
tp9
a(I633
I130
tp10
a(I707
I289
tp11
a(I724
I131
tp12
a(I743
I363
tp13
a(I763
I209
tp14
a(I781
I55
tp15
a(I796
I289
tp16
a(I815
I130
tp17
a(I706
I289
tp18
a(I724
I140
tp19
a(I741
I360
tp20
a(I761
I214
tp21
a(I780
I68
tp22
a(I794
I289
tp23
a(I813
I139
tp24
a(I711
I291
tp25
a(I730
I146
tp26
a(I746
I360
tp27
a(I767
I218
tp28
a(I786
I75
tp29
a(I799
I292
tp30
a(I819
I145
tp31
a(I529
I290
tp32
a(I547
I140
tp33
a(I564
I360
tp34
a(I584
I213
tp35
a(I603
I67
tp36
a(I617
I290
tp37
a(I636
I138
tp38
as(S'h2o'
p39
I0
tp40
(lp41
(I383
I244
tp42
a(I402
I99
tp43
a(I419
I309
tp44
a(I459
I29
tp45
a(I472
I245
tp46
a(I492
I100
tp47
a(I380
I294
tp48
a(I399
I134
tp49
a(I419
I364
tp50
a(I455
I56
tp51
a(I472
I293
tp52
a(I489
I133
tp53
a(I395
I287
tp54
a(I411
I137
tp55
a(I435
I354
tp56
a(I464
I62
tp57
a(I486
I285
tp58
a(I501
I134
tp59
a(I403
I280
tp60
a(I421
I126
tp61
a(I440
I349
tp62
a(I476
I52
tp63
a(I492
I279
tp64
a(I509
I125
tp65
a(I387
I258
tp66
a(I406
I107
tp67
a(I422
I325
tp68
a(I461
I34
tp69
a(I476
I258
tp70
a(I495
I107
tp71
a(I399
I244
tp72
a(I418
I97
tp73
a(I435
I310
tp74
a(I474
I26
tp75
a(I488
I244
tp76
a(I507
I98
tp77
a(I382
I252
tp78
a(I403
I100
tp79
a(I418
I319
tp80
a(I460
I28
tp81
a(I472
I253
tp82
a(I493
I101
tp83
a(I392
I242
tp84
a(I412
I98
tp85
a(I428
I306
tp86
a(I469
I28
tp87
a(I482
I243
tp88
a(I501
I98
tp89
as(g1
I1
tp90
(lp91
(I257
I287
tp92
a(I277
I143
tp93
a(I254
I288
tp94
a(I272
I129
tp95
a(I256
I298
tp96
a(I271
I148
tp97
a(I263
I290
tp98
a(I281
I137
tp99
a(I258
I285
tp100
a(I276
I136
tp101
a(I265
I284
tp102
a(I285
I138
tp103
a(I620
I290
tp104
a(I641
I143
tp105
a(I259
I281
tp106
a(I280
I131
tp107
a(I262
I288
tp108
a(I282
I145
tp109
a(I260
I287
tp110
a(I278
I136
tp111
as(S'fat'
p112
I7
tp113
(lp114
(I682
I109
tp115
a(I696
I315
tp116
a(I712
I175
tp117
as(g39
I5
tp118
(lp119
(I615
I100
tp120
a(I632
I312
tp121
a(I653
I173
tp122
a(I673
I29
tp123
a(I686
I247
tp124
as(g1
I4
tp125
(lp126
(I367
I146
tp127
a(I404
I216
tp128
a(I436
I290
tp129
a(I456
I145
tp130
a(I362
I148
tp131
a(I401
I221
tp132
a(I436
I296
tp133
a(I451
I146
tp134
a(I721
I143
tp135
a(I760
I216
tp136
a(I795
I291
tp137
a(I810
I141
tp138
a(I370
I138
tp139
a(I407
I214
tp140
a(I440
I290
tp141
a(I458
I137
tp142
a(I366
I138
tp143
a(I403
I211
tp144
a(I436
I287
tp145
a(I456
I137
tp146
a(I374
I141
tp147
a(I411
I213
tp148
a(I443
I287
tp149
a(I463
I141
tp150
a(I370
I135
tp151
a(I407
I209
tp152
a(I439
I285
tp153
a(I460
I134
tp154
a(I372
I147
tp155
a(I408
I218
tp156
a(I441
I290
tp157
a(I460
I147
tp158
as(g112
I1
tp159
(lp160
(I367
I332
tp161
a(I385
I205
tp162
a(I377
I314
tp163
a(I393
I175
tp164
a(I370
I313
tp165
a(I384
I180
tp166
a(I364
I318
tp167
a(I380
I184
tp168
a(I369
I321
tp169
a(I385
I189
tp170
a(I373
I327
tp171
a(I391
I199
tp172
a(I688
I332
tp173
a(I706
I204
tp174
a(I374
I330
tp175
a(I393
I198
tp176
a(I371
I334
tp177
a(I389
I207
tp178
a(I374
I321
tp179
a(I391
I189
tp180
as(g39
I7
tp181
(lp182
(I262
I26
tp183
a(I276
I242
tp184
a(I295
I96
tp185
a(I657
I31
tp186
a(I671
I247
tp187
a(I690
I102
tp188
a(I255
I56
tp189
a(I273
I293
tp190
a(I290
I133
tp191
a(I266
I65
tp192
a(I287
I289
tp193
a(I302
I137
tp194
a(I664
I60
tp195
a(I685
I283
tp196
a(I700
I132
tp197
a(I280
I51
tp198
a(I297
I280
tp199
a(I314
I125
tp200
a(I671
I51
tp201
a(I689
I280
tp202
a(I706
I125
tp203
a(I264
I33
tp204
a(I280
I257
tp205
a(I298
I106
tp206
a(I278
I24
tp207
a(I292
I242
tp208
a(I311
I94
tp209
a(I261
I24
tp210
a(I275
I249
tp211
a(I295
I97
tp212
a(I272
I26
tp213
a(I286
I241
tp214
a(I305
I95
tp215
a(I666
I31
tp216
a(I680
I246
tp217
a(I699
I101
tp218
a(I268
I39
tp219
a(I284
I264
tp220
a(I302
I112
tp221
as(g112
I3
tp222
(lp223
(I479
I384
tp224
a(I498
I256
tp225
a(I514
I127
tp226
a(I526
I321
tp227
a(I543
I190
tp228
a(I483
I389
tp229
a(I502
I264
tp230
a(I519
I139
tp231
a(I531
I330
tp232
a(I547
I201
tp233
a(I482
I393
tp234
a(I503
I266
tp235
a(I521
I138
tp236
a(I531
I334
tp237
a(I549
I202
tp238
a(I643
I386
tp239
a(I661
I256
tp240
a(I677
I127
tp241
a(I690
I323
tp242
a(I707
I191
tp243
as(g1
I2
tp244
(lp245
(I705
I294
tp246
a(I740
I362
tp247
a(I761
I222
tp248
a(I781
I81
tp249
a(I813
I150
tp250
a(I707
I291
tp251
a(I743
I363
tp252
a(I761
I214
tp253
a(I778
I64
tp254
a(I812
I137
tp255
a(I708
I290
tp256
a(I742
I362
tp257
a(I765
I216
tp258
a(I786
I70
tp259
a(I818
I142
tp260
as(g39
I6
tp261
(lp262
(I585
I259
tp263
a(I604
I109
tp264
a(I622
I326
tp265
a(I642
I183
tp266
a(I660
I36
tp267
a(I675
I259
tp268
a(I581
I255
tp269
a(I602
I104
tp270
a(I617
I322
tp271
a(I639
I180
tp272
a(I659
I31
tp273
a(I671
I256
tp274
as(g1
I3
tp275
(lp276
(I382
I363
tp277
a(I401
I208
tp278
a(I419
I54
tp279
a(I435
I288
tp280
a(I453
I130
tp281
a(I386
I359
tp282
a(I406
I212
tp283
a(I424
I66
tp284
a(I439
I288
tp285
a(I458
I138
tp286
as(g1
I0
tp287
(lp288
(I526
I292
tp289
a(I545
I148
tp290
a(I561
I359
tp291
a(I601
I79
tp292
a(I613
I293
tp293
a(I634
I147
tp294
a(I526
I295
tp295
a(I540
I146
tp296
a(I563
I364
tp297
a(I595
I73
tp298
a(I614
I294
tp299
a(I630
I143
tp300
a(I529
I291
tp301
a(I546
I139
tp302
a(I564
I363
tp303
a(I601
I64
tp304
a(I617
I290
tp305
a(I634
I137
tp306
a(I527
I288
tp307
a(I544
I139
tp308
a(I561
I358
tp309
a(I601
I67
tp310
a(I615
I288
tp311
a(I634
I138
tp312
a(I529
I287
tp313
a(I548
I138
tp314
a(I563
I358
tp315
a(I605
I66
tp316
a(I617
I288
tp317
a(I638
I138
tp318
a(I530
I292
tp319
a(I549
I150
tp320
a(I564
I360
tp321
a(I605
I80
tp322
a(I618
I293
tp323
a(I638
I149
tp324
a(I709
I295
tp325
a(I727
I152
tp326
a(I743
I362
tp327
a(I784
I83
tp328
a(I797
I295
tp329
a(I817
I152
tp330
a(I709
I290
tp331
a(I727
I141
tp332
a(I744
I362
tp333
a(I783
I67
tp334
a(I797
I291
tp335
a(I816
I140
tp336
as(g39
I8
tp337
(lp338
(I582
I294
tp339
a(I600
I134
tp340
a(I619
I365
tp341
a(I639
I213
tp342
a(I656
I57
tp343
a(I673
I294
tp344
a(I691
I134
tp345
as(g112
I9
tp346
(lp347
(I622
I209
tp348
a(I634
I395
tp349
a(I654
I272
tp350
a(I671
I148
tp351
a(I682
I337
tp352
a(I700
I209
tp353
a(I622
I179
tp354
a(I641
I371
tp355
a(I656
I243
tp356
a(I669
I114
tp357
a(I687
I308
tp358
a(I701
I176
tp359
a(I614
I185
tp360
a(I629
I382
tp361
a(I647
I251
tp362
a(I662
I120
tp363
a(I676
I319
tp364
a(I691
I185
tp365
a(I625
I212
tp366
a(I638
I395
tp367
a(I656
I274
tp368
a(I674
I151
tp369
a(I685
I338
tp370
a(I702
I212
tp371
as(g112
I2
tp372
(lp373
(I446
I333
tp374
a(I476
I394
tp375
a(I496
I270
tp376
a(I513
I147
tp377
a(I542
I207
tp378
a(I457
I315
tp379
a(I489
I380
tp380
a(I506
I244
tp381
a(I522
I109
tp382
a(I552
I175
tp383
a(I450
I312
tp384
a(I482
I373
tp385
a(I498
I245
tp386
a(I511
I116
tp387
a(I541
I179
tp388
a(I442
I319
tp389
a(I473
I381
tp390
a(I490
I251
tp391
a(I505
I120
tp392
a(I535
I184
tp393
a(I450
I336
tp394
a(I480
I394
tp395
a(I499
I272
tp396
a(I517
I149
tp397
a(I545
I210
tp398
a(I453
I322
tp399
a(I484
I385
tp400
a(I502
I255
tp401
a(I519
I126
tp402
a(I548
I189
tp403
as(g39
I1
tp404
(lp405
(I481
I266
tp406
a(I500
I113
tp407
a(I680
I266
tp408
a(I699
I115
tp409
as(g112
I0
tp410
(lp411
(I607
I323
tp412
a(I624
I192
tp413
a(I638
I385
tp414
a(I672
I129
tp415
a(I685
I323
tp416
a(I702
I192
tp417
a(I611
I336
tp418
a(I629
I204
tp419
a(I641
I395
tp420
a(I679
I141
tp421
a(I690
I337
tp422
a(I707
I205
tp423
as.